###############################################################################
#                                                                             #
# IAR ELF Linker V6.10.1.52143/W32 for ARM              13/May/2013  16:35:21 #
# Copyright 2007-2010 IAR Systems AB.                                         #
#                                                                             #
#    Output file  =  E:\yun\百度云\github\netIAP\测控IAP\Project\STM32F107_Lw #
#                    IP_IAP\EWARMv5\STM3210C-EVAL\Exe\STM3210C-EVAL.out       #
#    Map file     =  E:\yun\百度云\github\netIAP\测控IAP\Project\STM32F107_Lw #
#                    IP_IAP\EWARMv5\STM3210C-EVAL\List\STM3210C-EVAL.map      #
#    Command line =  E:\yun\百度云\github\netIAP\测控IAP\Project\STM32F107_Lw #
#                    IP_IAP\EWARMv5\STM3210C-EVAL\Obj\autoip.o                #
#                    E:\yun\百度云\github\netIAP\测控IAP\Project\STM32F107_Lw #
#                    IP_IAP\EWARMv5\STM3210C-EVAL\Obj\core_cm3.o              #
#                    E:\yun\百度云\github\netIAP\测控IAP\Project\STM32F107_Lw #
#                    IP_IAP\EWARMv5\STM3210C-EVAL\Obj\dhcp.o                  #
#                    E:\yun\百度云\github\netIAP\测控IAP\Project\STM32F107_Lw #
#                    IP_IAP\EWARMv5\STM3210C-EVAL\Obj\etharp.o                #
#                    E:\yun\百度云\github\netIAP\测控IAP\Project\STM32F107_Lw #
#                    IP_IAP\EWARMv5\STM3210C-EVAL\Obj\ethernetif.o            #
#                    E:\yun\百度云\github\netIAP\测控IAP\Project\STM32F107_Lw #
#                    IP_IAP\EWARMv5\STM3210C-EVAL\Obj\flash_if.o              #
#                    E:\yun\百度云\github\netIAP\测控IAP\Project\STM32F107_Lw #
#                    IP_IAP\EWARMv5\STM3210C-EVAL\Obj\httpserver.o            #
#                    E:\yun\百度云\github\netIAP\测控IAP\Project\STM32F107_Lw #
#                    IP_IAP\EWARMv5\STM3210C-EVAL\Obj\icmp.o                  #
#                    E:\yun\百度云\github\netIAP\测控IAP\Project\STM32F107_Lw #
#                    IP_IAP\EWARMv5\STM3210C-EVAL\Obj\inet.o                  #
#                    E:\yun\百度云\github\netIAP\测控IAP\Project\STM32F107_Lw #
#                    IP_IAP\EWARMv5\STM3210C-EVAL\Obj\inet_chksum.o           #
#                    E:\yun\百度云\github\netIAP\测控IAP\Project\STM32F107_Lw #
#                    IP_IAP\EWARMv5\STM3210C-EVAL\Obj\init.o                  #
#                    E:\yun\百度云\github\netIAP\测控IAP\Project\STM32F107_Lw #
#                    IP_IAP\EWARMv5\STM3210C-EVAL\Obj\ip.o                    #
#                    E:\yun\百度云\github\netIAP\测控IAP\Project\STM32F107_Lw #
#                    IP_IAP\EWARMv5\STM3210C-EVAL\Obj\ip_addr.o               #
#                    E:\yun\百度云\github\netIAP\测控IAP\Project\STM32F107_Lw #
#                    IP_IAP\EWARMv5\STM3210C-EVAL\Obj\ip_frag.o               #
#                    E:\yun\百度云\github\netIAP\测控IAP\Project\STM32F107_Lw #
#                    IP_IAP\EWARMv5\STM3210C-EVAL\Obj\main.o                  #
#                    E:\yun\百度云\github\netIAP\测控IAP\Project\STM32F107_Lw #
#                    IP_IAP\EWARMv5\STM3210C-EVAL\Obj\mem.o                   #
#                    E:\yun\百度云\github\netIAP\测控IAP\Project\STM32F107_Lw #
#                    IP_IAP\EWARMv5\STM3210C-EVAL\Obj\memp.o                  #
#                    E:\yun\百度云\github\netIAP\测控IAP\Project\STM32F107_Lw #
#                    IP_IAP\EWARMv5\STM3210C-EVAL\Obj\misc.o                  #
#                    E:\yun\百度云\github\netIAP\测控IAP\Project\STM32F107_Lw #
#                    IP_IAP\EWARMv5\STM3210C-EVAL\Obj\netconf.o               #
#                    E:\yun\百度云\github\netIAP\测控IAP\Project\STM32F107_Lw #
#                    IP_IAP\EWARMv5\STM3210C-EVAL\Obj\netif.o                 #
#                    E:\yun\百度云\github\netIAP\测控IAP\Project\STM32F107_Lw #
#                    IP_IAP\EWARMv5\STM3210C-EVAL\Obj\pbuf.o                  #
#                    E:\yun\百度云\github\netIAP\测控IAP\Project\STM32F107_Lw #
#                    IP_IAP\EWARMv5\STM3210C-EVAL\Obj\raw.o                   #
#                    E:\yun\百度云\github\netIAP\测控IAP\Project\STM32F107_Lw #
#                    IP_IAP\EWARMv5\STM3210C-EVAL\Obj\startup_stm32f10x_cl.o  #
#                    E:\yun\百度云\github\netIAP\测控IAP\Project\STM32F107_Lw #
#                    IP_IAP\EWARMv5\STM3210C-EVAL\Obj\stats.o                 #
#                    E:\yun\百度云\github\netIAP\测控IAP\Project\STM32F107_Lw #
#                    IP_IAP\EWARMv5\STM3210C-EVAL\Obj\stm3210c_eval_lcd.o     #
#                    E:\yun\百度云\github\netIAP\测控IAP\Project\STM32F107_Lw #
#                    IP_IAP\EWARMv5\STM3210C-EVAL\Obj\stm32_eth.o             #
#                    E:\yun\百度云\github\netIAP\测控IAP\Project\STM32F107_Lw #
#                    IP_IAP\EWARMv5\STM3210C-EVAL\Obj\stm32_eval.o            #
#                    E:\yun\百度云\github\netIAP\测控IAP\Project\STM32F107_Lw #
#                    IP_IAP\EWARMv5\STM3210C-EVAL\Obj\stm32f107.o             #
#                    E:\yun\百度云\github\netIAP\测控IAP\Project\STM32F107_Lw #
#                    IP_IAP\EWARMv5\STM3210C-EVAL\Obj\stm32f10x_bkp.o         #
#                    E:\yun\百度云\github\netIAP\测控IAP\Project\STM32F107_Lw #
#                    IP_IAP\EWARMv5\STM3210C-EVAL\Obj\stm32f10x_exti.o        #
#                    E:\yun\百度云\github\netIAP\测控IAP\Project\STM32F107_Lw #
#                    IP_IAP\EWARMv5\STM3210C-EVAL\Obj\stm32f10x_flash.o       #
#                    E:\yun\百度云\github\netIAP\测控IAP\Project\STM32F107_Lw #
#                    IP_IAP\EWARMv5\STM3210C-EVAL\Obj\stm32f10x_gpio.o        #
#                    E:\yun\百度云\github\netIAP\测控IAP\Project\STM32F107_Lw #
#                    IP_IAP\EWARMv5\STM3210C-EVAL\Obj\stm32f10x_it.o          #
#                    E:\yun\百度云\github\netIAP\测控IAP\Project\STM32F107_Lw #
#                    IP_IAP\EWARMv5\STM3210C-EVAL\Obj\stm32f10x_pwr.o         #
#                    E:\yun\百度云\github\netIAP\测控IAP\Project\STM32F107_Lw #
#                    IP_IAP\EWARMv5\STM3210C-EVAL\Obj\stm32f10x_rcc.o         #
#                    E:\yun\百度云\github\netIAP\测控IAP\Project\STM32F107_Lw #
#                    IP_IAP\EWARMv5\STM3210C-EVAL\Obj\stm32f10x_spi.o         #
#                    E:\yun\百度云\github\netIAP\测控IAP\Project\STM32F107_Lw #
#                    IP_IAP\EWARMv5\STM3210C-EVAL\Obj\stm32f10x_wwdg.o        #
#                    E:\yun\百度云\github\netIAP\测控IAP\Project\STM32F107_Lw #
#                    IP_IAP\EWARMv5\STM3210C-EVAL\Obj\sys.o                   #
#                    E:\yun\百度云\github\netIAP\测控IAP\Project\STM32F107_Lw #
#                    IP_IAP\EWARMv5\STM3210C-EVAL\Obj\system_stm32f10x.o      #
#                    E:\yun\百度云\github\netIAP\测控IAP\Project\STM32F107_Lw #
#                    IP_IAP\EWARMv5\STM3210C-EVAL\Obj\tcp.o                   #
#                    E:\yun\百度云\github\netIAP\测控IAP\Project\STM32F107_Lw #
#                    IP_IAP\EWARMv5\STM3210C-EVAL\Obj\tcp_in.o                #
#                    E:\yun\百度云\github\netIAP\测控IAP\Project\STM32F107_Lw #
#                    IP_IAP\EWARMv5\STM3210C-EVAL\Obj\tcp_out.o               #
#                    E:\yun\百度云\github\netIAP\测控IAP\Project\STM32F107_Lw #
#                    IP_IAP\EWARMv5\STM3210C-EVAL\Obj\tftpserver.o            #
#                    E:\yun\百度云\github\netIAP\测控IAP\Project\STM32F107_Lw #
#                    IP_IAP\EWARMv5\STM3210C-EVAL\Obj\udp.o --redirect        #
#                    _Printf=_PrintfTiny --redirect _Scanf=_ScanfSmall -o     #
#                    E:\yun\百度云\github\netIAP\测控IAP\Project\STM32F107_Lw #
#                    IP_IAP\EWARMv5\STM3210C-EVAL\Exe\STM3210C-EVAL.out       #
#                    --map E:\yun\百度云\github\netIAP\测控IAP\Project\STM32F #
#                    107_LwIP_IAP\EWARMv5\STM3210C-EVAL\List\STM3210C-EVAL.ma #
#                    p --config E:\yun\百度云\github\netIAP\测控IAP\Project\S #
#                    TM32F107_LwIP_IAP\EWARMv5\STM32F10x_FLASH.icf            #
#                    --semihosting --entry __iar_program_start                #
#                                                                             #
#                                                                             #
###############################################################################

*******************************************************************************
*** RUNTIME MODEL ATTRIBUTES
***

CppFlavor       = *
__SystemLibrary = DLib


*******************************************************************************
*** PLACEMENT SUMMARY
***

"A1":  place at 0x08000000 { ro section .intvec };
"P1":  place in [from 0x08000000 to 0x0803bfff] { ro };
"P2":  place in [from 0x20000000 to 0x2000ffff] { rw, block CSTACK, block HEAP };

  Section            Kind        Address    Size  Object
  -------            ----        -------    ----  ------
"A1":                                      0x150
  .intvec            ro code  0x08000000   0x150  startup_stm32f10x_cl.o [1]
                            - 0x08000150   0x150

"P1":                                     0x6d08
  .text              ro code  0x08000150  0x141c  tcp_in.o [1]
  .text              ro code  0x0800156c    0x26  inet.o [1]
  .text              ro code  0x08001592   0x33c  pbuf.o [1]
  .text              ro code  0x080018ce    0x2e  copy_init3.o [5]
  .text              ro code  0x080018fc    0x40  ip_addr.o [1]
  .text              ro code  0x0800193c   0x7e0  tcp.o [1]
  .text              ro code  0x0800211c    0x9c  memp.o [1]
  .text              ro code  0x080021b8   0x7fa  tcp_out.o [1]
  .text              ro code  0x080029b2    0x22  zero_init3.o [5]
  .text              ro code  0x080029d4   0x1d8  mem.o [1]
  .text              ro code  0x08002bac    0x70  ABImemcpy.o [5]
  .text              ro code  0x08002c1c     0x6  ABImemclr4.o [5]
  .text              ro code  0x08002c22     0xa  xsprout.o [3]
  .text              ro code  0x08002c2c   0x294  ip.o [1]
  .text              ro code  0x08002ec0    0x38  ABImemset48.o [5]
  .text              ro code  0x08002ef8   0x10a  netif.o [1]
  .text              ro code  0x08003004   0x48c  ip_frag.o [1]
  .text              ro code  0x08003490    0x60  raw.o [1]
  .text              ro code  0x080034f0   0x2ea  udp.o [1]
  .text              ro code  0x080037da   0x18c  icmp.o [1]
  .text              ro code  0x08003968   0x64c  etharp.o [1]
  .text              ro code  0x08003fb4    0x9a  inet_chksum.o [1]
  .text              ro code  0x08004050  0x11a0  httpserver.o [1]
  .text              ro code  0x080051f0   0x244  stm32f10x_rcc.o [1]
  .text              ro code  0x08005434    0x10  stm32f10x_wwdg.o [1]
  .text              ro code  0x08005444    0x2a  strncmp.o [3]
  .text              ro code  0x08005470    0x34  sprintf.o [3]
  .text              ro code  0x080054a4    0x70  flash_if.o [1]
  .text              ro code  0x08005514    0x42  strcmp.o [5]
  .text              ro code  0x08005556   0x11a  xprintftiny.o [3]
  .text              ro code  0x08005670   0x182  stm32f10x_flash.o [1]
  .text              ro code  0x080057f4    0x36  strlen.o [5]
  .text              ro code  0x0800582c   0x72a  stm32_eth.o [1]
  .text              ro code  0x08005f58   0x384  stm32f107.o [1]
  .text              ro code  0x080062dc   0x158  stm32f10x_gpio.o [1]
  .text              ro code  0x08006434   0x2d4  tftpserver.o [1]
  .text              ro code  0x08006708    0x16  tftpserver.o [1]
  .text              ro code  0x08006720    0x3c  stm32f10x_bkp.o [1]
  .text              ro code  0x0800675c   0x214  ethernetif.o [1]
  .text              ro code  0x08006970   0x198  system_stm32f10x.o [1]
  .text              ro code  0x08006b08    0xc4  netconf.o [1]
  .text              ro code  0x08006bcc    0x78  main.o [1]
  .text              ro code  0x08006c44    0x2c  data_init3.o [5]
  .iar.init_table    const    0x08006c70    0x24  - Linker created -
  .text              ro code  0x08006c94    0x18  stm32f10x_it.o [1]
  .text              ro code  0x08006cac    0x16  cmain.o [5]
  .text              ro code  0x08006cc2     0x4  low_level_init.o [3]
  .text              ro code  0x08006cc6     0x8  exit.o [3]
  .text              ro code  0x08006cd0     0xa  cexit.o [5]
  .text              ro code  0x08006cdc    0x14  exit.o [6]
  .text              ro code  0x08006cf0    0x10  startup_stm32f10x_cl.o [1]
  .text              ro code  0x08006d00     0xc  cstartup_M.o [5]
  .text              ro code  0x08006d0c     0x4  startup_stm32f10x_cl.o [1]
  .text              ro code  0x08006d10     0x4  startup_stm32f10x_cl.o [1]
  .text              ro code  0x08006d14     0x4  startup_stm32f10x_cl.o [1]
  .text              ro code  0x08006d18     0x4  startup_stm32f10x_cl.o [1]
  .text              ro code  0x08006d1c     0x4  startup_stm32f10x_cl.o [1]
  .text              ro code  0x08006d20     0x4  startup_stm32f10x_cl.o [1]
  .text              ro code  0x08006d24     0x4  startup_stm32f10x_cl.o [1]
  .text              ro code  0x08006d28     0x4  startup_stm32f10x_cl.o [1]
  .text              ro code  0x08006d2c     0x4  startup_stm32f10x_cl.o [1]
  .text              ro code  0x08006d30     0x4  startup_stm32f10x_cl.o [1]
  .text              ro code  0x08006d34     0x4  startup_stm32f10x_cl.o [1]
  .text              ro code  0x08006d38     0x4  startup_stm32f10x_cl.o [1]
  .text              ro code  0x08006d3c     0x4  startup_stm32f10x_cl.o [1]
  .text              ro code  0x08006d40     0x4  startup_stm32f10x_cl.o [1]
  .text              ro code  0x08006d44     0x4  startup_stm32f10x_cl.o [1]
  .text              ro code  0x08006d48     0x4  startup_stm32f10x_cl.o [1]
  .text              ro code  0x08006d4c     0x4  startup_stm32f10x_cl.o [1]
  .text              ro code  0x08006d50     0x4  startup_stm32f10x_cl.o [1]
  .text              ro code  0x08006d54     0x4  startup_stm32f10x_cl.o [1]
  .text              ro code  0x08006d58     0x4  startup_stm32f10x_cl.o [1]
  .text              ro code  0x08006d5c     0x4  startup_stm32f10x_cl.o [1]
  .text              ro code  0x08006d60     0x4  startup_stm32f10x_cl.o [1]
  .text              ro code  0x08006d64     0x4  startup_stm32f10x_cl.o [1]
  .text              ro code  0x08006d68     0x4  startup_stm32f10x_cl.o [1]
  .text              ro code  0x08006d6c     0x4  startup_stm32f10x_cl.o [1]
  .text              ro code  0x08006d70     0x4  startup_stm32f10x_cl.o [1]
  .text              ro code  0x08006d74     0x4  startup_stm32f10x_cl.o [1]
  .text              ro code  0x08006d78     0x4  startup_stm32f10x_cl.o [1]
  .text              ro code  0x08006d7c     0x4  startup_stm32f10x_cl.o [1]
  .text              ro code  0x08006d80     0x4  startup_stm32f10x_cl.o [1]
  .text              ro code  0x08006d84     0x4  startup_stm32f10x_cl.o [1]
  .text              ro code  0x08006d88     0x4  startup_stm32f10x_cl.o [1]
  .text              ro code  0x08006d8c     0x4  startup_stm32f10x_cl.o [1]
  .text              ro code  0x08006d90     0x4  startup_stm32f10x_cl.o [1]
  .text              ro code  0x08006d94     0x4  startup_stm32f10x_cl.o [1]
  .text              ro code  0x08006d98     0x4  startup_stm32f10x_cl.o [1]
  .text              ro code  0x08006d9c     0x4  startup_stm32f10x_cl.o [1]
  .text              ro code  0x08006da0     0x4  startup_stm32f10x_cl.o [1]
  .text              ro code  0x08006da4     0x4  startup_stm32f10x_cl.o [1]
  .text              ro code  0x08006da8     0x4  startup_stm32f10x_cl.o [1]
  .text              ro code  0x08006dac     0x4  startup_stm32f10x_cl.o [1]
  .text              ro code  0x08006db0     0x4  startup_stm32f10x_cl.o [1]
  .text              ro code  0x08006db4     0x4  startup_stm32f10x_cl.o [1]
  .text              ro code  0x08006db8     0x4  startup_stm32f10x_cl.o [1]
  .text              ro code  0x08006dbc     0x4  startup_stm32f10x_cl.o [1]
  .text              ro code  0x08006dc0     0x4  startup_stm32f10x_cl.o [1]
  .text              ro code  0x08006dc4     0x4  startup_stm32f10x_cl.o [1]
  .text              ro code  0x08006dc8     0x4  startup_stm32f10x_cl.o [1]
  .text              ro code  0x08006dcc     0x4  startup_stm32f10x_cl.o [1]
  .text              ro code  0x08006dd0     0x4  startup_stm32f10x_cl.o [1]
  .text              ro code  0x08006dd4     0x4  startup_stm32f10x_cl.o [1]
  .text              ro code  0x08006dd8     0x4  startup_stm32f10x_cl.o [1]
  .text              ro code  0x08006ddc     0x4  startup_stm32f10x_cl.o [1]
  .text              ro code  0x08006de0     0x4  startup_stm32f10x_cl.o [1]
  .text              ro code  0x08006de4     0x4  startup_stm32f10x_cl.o [1]
  .text              ro code  0x08006de8     0x4  startup_stm32f10x_cl.o [1]
  .text              ro code  0x08006dec     0x4  startup_stm32f10x_cl.o [1]
  .text              ro code  0x08006df0     0x4  startup_stm32f10x_cl.o [1]
  .text              ro code  0x08006df4     0x4  startup_stm32f10x_cl.o [1]
  .text              ro code  0x08006df8     0x4  startup_stm32f10x_cl.o [1]
  .text              ro code  0x08006dfc     0x4  startup_stm32f10x_cl.o [1]
  .text              ro code  0x08006e00     0x4  startup_stm32f10x_cl.o [1]
  .text              ro code  0x08006e04     0x4  startup_stm32f10x_cl.o [1]
  .text              ro code  0x08006e08     0x4  startup_stm32f10x_cl.o [1]
  .text              ro code  0x08006e0c     0x4  startup_stm32f10x_cl.o [1]
  .text              ro code  0x08006e10     0x4  startup_stm32f10x_cl.o [1]
  .text              ro code  0x08006e14     0x4  startup_stm32f10x_cl.o [1]
  .text              ro code  0x08006e18     0x4  startup_stm32f10x_cl.o [1]
  .text              ro code  0x08006e1c     0x4  startup_stm32f10x_cl.o [1]
  .text              ro code  0x08006e20     0x4  startup_stm32f10x_cl.o [1]
  Initializer bytes  ro data  0x08006e24    0x34  <for P2 s0>
                            - 0x08006e58  0x6d08

"P2", part 1 of 3:                          0x34
  P2 s0                       0x20000000    0x34  <Init block>
    .data            inited   0x20000000    0x20  tcp.o [1]
    .data            inited   0x20000020    0x10  stm32f10x_rcc.o [1]
    .data            inited   0x20000030     0x4  stm32f10x_rcc.o [1]
                            - 0x20000034    0x34

"P2", part 2 of 3:                        0x7c34
  .bss               zero     0x20000034  0x3c08  ethernetif.o [1]
  .bss               zero     0x20003c3c  0x2890  memp.o [1]
  .bss               zero     0x200064cc  0x1020  mem.o [1]
  .bss               zero     0x200074ec   0x5e0  ip_frag.o [1]
  .bss               zero     0x20007acc    0xc8  etharp.o [1]
  .bss               zero     0x20007b94    0x30  netconf.o [1]
  .bss               zero     0x20007bc4    0x14  tcp_in.o [1]
  .bss               zero     0x20007bd8     0xc  netif.o [1]
  .bss               zero     0x20007be4     0x8  ip.o [1]
  .bss               zero     0x20007bec     0x8  ip_frag.o [1]
  .bss               zero     0x20007bf4     0x4  httpserver.o [1]
  .bss               zero     0x20007bf8     0x4  httpserver.o [1]
  .bss               zero     0x20007bfc     0x4  httpserver.o [1]
  .bss               zero     0x20007c00     0x4  httpserver.o [1]
  .bss               zero     0x20007c04     0x4  httpserver.o [1]
  .bss               zero     0x20007c08     0x4  httpserver.o [1]
  .bss               zero     0x20007c0c     0x4  httpserver.o [1]
  .bss               zero     0x20007c10     0x4  httpserver.o [1]
  .bss               zero     0x20007c14     0x4  main.o [1]
  .bss               zero     0x20007c18     0x4  main.o [1]
  .bss               zero     0x20007c1c     0x4  netconf.o [1]
  .bss               zero     0x20007c20     0x4  netconf.o [1]
  .bss               zero     0x20007c24     0x4  raw.o [1]
  .bss               zero     0x20007c28     0x4  stm32_eth.o [1]
  .bss               zero     0x20007c2c     0x4  stm32_eth.o [1]
  .bss               zero     0x20007c30     0x4  tcp_in.o [1]
  .bss               zero     0x20007c34     0x4  tcp_in.o [1]
  .bss               zero     0x20007c38     0x4  tcp_in.o [1]
  .bss               zero     0x20007c3c     0x4  tcp_in.o [1]
  .bss               zero     0x20007c40     0x4  tcp_in.o [1]
  .bss               zero     0x20007c44     0x4  tcp_in.o [1]
  .bss               zero     0x20007c48     0x4  tftpserver.o [1]
  .bss               zero     0x20007c4c     0x4  tftpserver.o [1]
  .bss               zero     0x20007c50     0x4  tftpserver.o [1]
  .bss               zero     0x20007c54     0x4  udp.o [1]
  .bss               zero     0x20007c58     0x2  ip.o [1]
  .bss               zero     0x20007c5a     0x2  tcp_in.o [1]
  .bss               zero     0x20007c5c     0x1  etharp.o [1]
  .bss               zero     0x20007c5d     0x1  httpserver.o [1]
  .bss               zero     0x20007c5e     0x1  httpserver.o [1]
  .bss               zero     0x20007c5f     0x1  httpserver.o [1]
  .bss               zero     0x20007c60     0x1  tcp.o [1]
  .bss               zero     0x20007c61     0x1  tcp_in.o [1]
  .bss               zero     0x20007c62     0x1  tcp_in.o [1]
                            - 0x20007c63  0x7c2f

"P2", part 3 of 3:                        0x1000
  CSTACK                      0x20007c68  0x1000  <Block>
    CSTACK           uninit   0x20007c68  0x1000  <Block tail>
                            - 0x20008c68  0x1000


*******************************************************************************
*** INIT TABLE
***

          Address     Size
          -------     ----
Zero (__iar_zero_init3)
    1 destination range, total size 0x7c2f:
          0x20000034  0x7c2f

Copy (__iar_copy_init3)
    1 source range, total size 0x34:
          0x08006e24    0x34
    1 destination range, total size 0x34:
          0x20000000    0x34


*******************************************************************************
*** MODULE SUMMARY
***

    Module                  ro code  ro data  rw data
    ------                  -------  -------  -------
E:\yun\百度云\github\netIAP\测控IAP\Project\STM32F107_LwIP_IAP\EWARMv5\STM3210C-EVAL\Obj: [1]
    etharp.o                  1 612               201
    ethernetif.o                532            15 368
    flash_if.o                  112
    httpserver.o              4 512                35
    icmp.o                      396
    inet.o                       38
    inet_chksum.o               154
    ip.o                        660                10
    ip_addr.o                    64
    ip_frag.o                 1 164             1 512
    main.o                      120                 8
    mem.o                       472             4 128
    memp.o                      156            10 384
    netconf.o                   196                56
    netif.o                     266                12
    pbuf.o                      828
    raw.o                        96                 4
    startup_stm32f10x_cl.o      632
    stm32_eth.o               1 834                 8
    stm32f107.o                 900
    stm32f10x_bkp.o              60
    stm32f10x_flash.o           386
    stm32f10x_gpio.o            344
    stm32f10x_it.o               24
    stm32f10x_rcc.o             580       20       20
    stm32f10x_wwdg.o             16
    system_stm32f10x.o          408
    tcp.o                     2 016       32       33
    tcp_in.o                  5 148                48
    tcp_out.o                 2 042
    tftpserver.o                746                12
    udp.o                       746                 4
    -------------------------------------------------
    Total:                   27 260       52   31 843

command line: [2]
    -------------------------------------------------
    Total:

dl7M_tlf.a: [3]
    exit.o                        8
    low_level_init.o              4
    sprintf.o                    52
    strncmp.o                    42
    xprintftiny.o               282
    xsprout.o                    10
    -------------------------------------------------
    Total:                      398

m7M_tl.a: [4]
    -------------------------------------------------
    Total:

rt7M_tl.a: [5]
    ABImemclr4.o                  6
    ABImemcpy.o                 112
    ABImemset48.o                56
    cexit.o                      10
    cmain.o                      22
    copy_init3.o                 46
    cstartup_M.o                 12
    data_init3.o                 44
    strcmp.o                     66
    strlen.o                     54
    zero_init3.o                 34
    -------------------------------------------------
    Total:                      462

shb_l.a: [6]
    exit.o                       20
    -------------------------------------------------
    Total:                       20

    Gaps                         20
    Linker created                        36    4 096
-----------------------------------------------------
    Grand Total:             28 160       88   35 939


*******************************************************************************
*** ENTRY LIST
***

Entry                      Address    Size  Type      Object
-----                      -------    ----  ----      ------
?main                   0x08006cad          Code  Gb  cmain.o [5]
ADC1_2_IRQHandler       0x08006d79          Code  Wk  startup_stm32f10x_cl.o [1]
ADCPrescTable           0x20000030     0x4  Data  Lc  stm32f10x_rcc.o [1]
APBAHBPrescTable        0x20000020    0x10  Data  Lc  stm32f10x_rcc.o [1]
ARPTimer                0x20007c20     0x4  Data  Gb  netconf.o [1]
BKP_ReadBackupRegister  0x0800673d    0x1c  Code  Gb  stm32f10x_bkp.o [1]
BKP_WriteBackupRegister
                        0x08006721    0x1c  Code  Gb  stm32f10x_bkp.o [1]
BrowserFlag             0x20007c0c     0x4  Data  Lc  httpserver.o [1]
BusFault_Handler        0x08006c9b     0x2  Code  Gb  stm32f10x_it.o [1]
CAN1_RX0_IRQHandler     0x08006d81          Code  Wk  startup_stm32f10x_cl.o [1]
CAN1_RX1_IRQHandler     0x08006d85          Code  Wk  startup_stm32f10x_cl.o [1]
CAN1_SCE_IRQHandler     0x08006d89          Code  Wk  startup_stm32f10x_cl.o [1]
CAN1_TX_IRQHandler      0x08006d7d          Code  Wk  startup_stm32f10x_cl.o [1]
CAN2_RX0_IRQHandler     0x08006e15          Code  Wk  startup_stm32f10x_cl.o [1]
CAN2_RX1_IRQHandler     0x08006e19          Code  Wk  startup_stm32f10x_cl.o [1]
CAN2_SCE_IRQHandler     0x08006e1d          Code  Wk  startup_stm32f10x_cl.o [1]
CAN2_TX_IRQHandler      0x08006e11          Code  Wk  startup_stm32f10x_cl.o [1]
CSTACK$$Base            0x20007c68           --   Gb  - Linker created -
CSTACK$$Limit           0x20008c68           --   Gb  - Linker created -
ContentLengthOffset     0x20007c08     0x4  Data  Lc  httpserver.o [1]
Content_Length          0x080051dc    0x14  Data  Lc  httpserver.o [1]
DMA1_Channel1_IRQHandler
                        0x08006d5d          Code  Wk  startup_stm32f10x_cl.o [1]
DMA1_Channel2_IRQHandler
                        0x08006d61          Code  Wk  startup_stm32f10x_cl.o [1]
DMA1_Channel3_IRQHandler
                        0x08006d65          Code  Wk  startup_stm32f10x_cl.o [1]
DMA1_Channel4_IRQHandler
                        0x08006d69          Code  Wk  startup_stm32f10x_cl.o [1]
DMA1_Channel5_IRQHandler
                        0x08006d6d          Code  Wk  startup_stm32f10x_cl.o [1]
DMA1_Channel6_IRQHandler
                        0x08006d71          Code  Wk  startup_stm32f10x_cl.o [1]
DMA1_Channel7_IRQHandler
                        0x08006d75          Code  Wk  startup_stm32f10x_cl.o [1]
DMA2_Channel1_IRQHandler
                        0x08006df5          Code  Wk  startup_stm32f10x_cl.o [1]
DMA2_Channel2_IRQHandler
                        0x08006df9          Code  Wk  startup_stm32f10x_cl.o [1]
DMA2_Channel3_IRQHandler
                        0x08006dfd          Code  Wk  startup_stm32f10x_cl.o [1]
DMA2_Channel4_IRQHandler
                        0x08006e01          Code  Wk  startup_stm32f10x_cl.o [1]
DMA2_Channel5_IRQHandler
                        0x08006e05          Code  Wk  startup_stm32f10x_cl.o [1]
DMARxDescToGet          0x20007c2c     0x4  Data  Gb  stm32_eth.o [1]
DMARxDscrTab            0x2000003c    0x60  Data  Gb  ethernetif.o [1]
DMATxDescToSet          0x20007c28     0x4  Data  Gb  stm32_eth.o [1]
DMATxDscrTab            0x2000009c    0x40  Data  Gb  ethernetif.o [1]
DataFlag                0x20007bf4     0x4  Data  Lc  httpserver.o [1]
DebugMon_Handler        0x08006ca1     0x2  Code  Gb  stm32f10x_it.o [1]
Delay                   0x08006c09    0x18  Code  Gb  main.o [1]
ETH_DMAITConfig         0x08005eb9    0x26  Code  Gb  stm32_eth.o [1]
ETH_DMAReceptionCmd     0x08005e8d    0x22  Code  Gb  stm32_eth.o [1]
ETH_DMARxDescChainInit  0x08005dd1    0x4e  Code  Gb  stm32_eth.o [1]
ETH_DMATransmissionCmd  0x08005e61    0x22  Code  Gb  stm32_eth.o [1]
ETH_DMATxDescChainInit  0x08005d81    0x48  Code  Gb  stm32_eth.o [1]
ETH_DMATxDescChecksumInsertionConfig
                        0x08005dc9     0x8  Code  Gb  stm32_eth.o [1]
ETH_DeInit              0x0800582d    0x18  Code  Gb  stm32_eth.o [1]
ETH_Delay               0x08005f39    0x1e  Code  Lc  stm32_eth.o [1]
ETH_FlushTransmitFIFO   0x08005e53     0xe  Code  Gb  stm32_eth.o [1]
ETH_GetDMARxDescFrameLength
                        0x08005e1f     0x8  Code  Gb  stm32_eth.o [1]
ETH_GetRxPktSize        0x08005bef    0x2a  Code  Gb  stm32_eth.o [1]
ETH_GetSoftwareResetStatus
                        0x08005e39    0x1a  Code  Gb  stm32_eth.o [1]
ETH_IRQHandler          0x08006e09          Code  Wk  startup_stm32f10x_cl.o [1]
ETH_Init                0x08005845   0x2a0  Code  Gb  stm32_eth.o [1]
ETH_MACAddressConfig    0x08005d4f    0x32  Code  Gb  stm32_eth.o [1]
ETH_MACReceptionCmd     0x08005d25    0x2a  Code  Gb  stm32_eth.o [1]
ETH_MACTransmissionCmd  0x08005cfb    0x2a  Code  Gb  stm32_eth.o [1]
ETH_ReadPHYRegister     0x08005c19    0x70  Code  Gb  stm32_eth.o [1]
ETH_RxPkt_ChainMode     0x080068cd    0x54  Code  Gb  ethernetif.o [1]
ETH_SoftwareReset       0x08005e27    0x12  Code  Gb  stm32_eth.o [1]
ETH_Start               0x08005bcf    0x20  Code  Gb  stm32_eth.o [1]
ETH_StructInit          0x08005ae5    0xea  Code  Gb  stm32_eth.o [1]
ETH_TxPkt_ChainMode     0x08006921    0x34  Code  Gb  ethernetif.o [1]
ETH_WKUP_IRQHandler     0x08006e0d          Code  Wk  startup_stm32f10x_cl.o [1]
ETH_WritePHYRegister    0x08005c89    0x72  Code  Gb  stm32_eth.o [1]
EXTI0_IRQHandler        0x08006d49          Code  Wk  startup_stm32f10x_cl.o [1]
EXTI15_10_IRQHandler    0x08006dd1          Code  Wk  startup_stm32f10x_cl.o [1]
EXTI1_IRQHandler        0x08006d4d          Code  Wk  startup_stm32f10x_cl.o [1]
EXTI2_IRQHandler        0x08006d51          Code  Wk  startup_stm32f10x_cl.o [1]
EXTI3_IRQHandler        0x08006d55          Code  Wk  startup_stm32f10x_cl.o [1]
EXTI4_IRQHandler        0x08006d59          Code  Wk  startup_stm32f10x_cl.o [1]
EXTI9_5_IRQHandler      0x08006d8d          Code  Wk  startup_stm32f10x_cl.o [1]
Ethernet_Configuration  0x08006037    0x94  Code  Gb  stm32f107.o [1]
FLASH_ErasePage         0x08005687    0x64  Code  Gb  stm32f10x_flash.o [1]
FLASH_GetBank1Status    0x08005777    0x34  Code  Gb  stm32f10x_flash.o [1]
FLASH_IRQHandler        0x08006d41          Code  Wk  startup_stm32f10x_cl.o [1]
FLASH_If_Erase          0x080054ad    0x26  Code  Gb  flash_if.o [1]
FLASH_If_Init           0x080054a5     0x8  Code  Gb  flash_if.o [1]
FLASH_If_Write          0x080054d3    0x3a  Code  Gb  flash_if.o [1]
FLASH_ProgramWord       0x080056eb    0x8c  Code  Gb  stm32f10x_flash.o [1]
FLASH_Unlock            0x08005671    0x16  Code  Gb  stm32f10x_flash.o [1]
FLASH_WaitForLastOperation
                        0x080057c5    0x2e  Code  Gb  stm32f10x_flash.o [1]
FlashWriteAddress       0x20007bfc     0x4  Data  Lc  httpserver.o [1]
Flash_Write_Address     0x20007c48     0x4  Data  Lc  tftpserver.o [1]
GPIO_Configuration      0x080060cb    0xbe  Code  Gb  stm32f107.o [1]
GPIO_ETH_MediaInterfaceConfig
                        0x08006427     0x6  Code  Gb  stm32f10x_gpio.o [1]
GPIO_Init               0x080062dd   0x138  Code  Gb  stm32f10x_gpio.o [1]
GPIO_WriteBit           0x08006415    0x12  Code  Gb  stm32f10x_gpio.o [1]
HardFault_Handler       0x08006c97     0x2  Code  Gb  stm32f10x_it.o [1]
I2C1_ER_IRQHandler      0x08006db1          Code  Wk  startup_stm32f10x_cl.o [1]
I2C1_EV_IRQHandler      0x08006dad          Code  Wk  startup_stm32f10x_cl.o [1]
I2C2_ER_IRQHandler      0x08006db9          Code  Wk  startup_stm32f10x_cl.o [1]
I2C2_EV_IRQHandler      0x08006db5          Code  Wk  startup_stm32f10x_cl.o [1]
IAP_HTTP_writedata      0x080046b7    0xcc  Code  Lc  httpserver.o [1]
IAP_httpd_init          0x080045bf    0x2a  Code  Gb  httpserver.o [1]
IAP_tftp_cleanup_wr     0x0800668d    0x26  Code  Lc  tftpserver.o [1]
IAP_tftp_decode_op      0x08006435     0x4  Code  Lc  tftpserver.o [1]
IAP_tftp_extract_block  0x08006439     0xc  Code  Lc  tftpserver.o [1]
IAP_tftp_process_write  0x080065bd    0x70  Code  Lc  tftpserver.o [1]
IAP_tftp_recv_callback  0x0800662d    0x60  Code  Lc  tftpserver.o [1]
IAP_tftp_send_ack_packet
                        0x0800645f    0x60  Code  Lc  tftpserver.o [1]
IAP_tftp_set_block      0x0800644d    0x12  Code  Lc  tftpserver.o [1]
IAP_tftp_set_opcode     0x08006445     0x8  Code  Lc  tftpserver.o [1]
IAP_tftpd_init          0x080066b3    0x38  Code  Gb  tftpserver.o [1]
IAP_wrq_recv_callback   0x080064bf    0xfe  Code  Lc  tftpserver.o [1]
LeftBytes               0x20007c5d     0x1  Data  Lc  httpserver.o [1]
LeftBytesTab            0x20007c04     0x4  Data  Lc  httpserver.o [1]
LocalTime               0x20007c14     0x4  Data  Gb  main.o [1]
LwIP_Init               0x08006b09    0x62  Code  Gb  netconf.o [1]
LwIP_Periodic_Handle    0x08006b75    0x34  Code  Gb  netconf.o [1]
LwIP_Pkt_Handle         0x08006b6b     0xa  Code  Gb  netconf.o [1]
MACaddr                 0x20000034     0x8  Data  Gb  ethernetif.o [1]
MemManage_Handler       0x08006c99     0x2  Code  Gb  stm32f10x_it.o [1]
NMI_Handler             0x08006c95     0x2  Code  Gb  stm32f10x_it.o [1]
NVIC_SetPriority        0x08005f59    0x22  Code  Lc  stm32f107.o [1]
OTG_FS_IRQHandler       0x08006e21          Code  Wk  startup_stm32f10x_cl.o [1]
OTG_FS_WKUP_IRQHandler  0x08006dd9          Code  Wk  startup_stm32f10x_cl.o [1]
PVD_IRQHandler          0x08006d35          Code  Wk  startup_stm32f10x_cl.o [1]
Parse_Content_Length    0x08004619    0x9e  Code  Lc  httpserver.o [1]
PendSV_Handler          0x08006ca3     0x2  Code  Gb  stm32f10x_it.o [1]
RCC_AHBPeriphClockCmd   0x08005391    0x1e  Code  Gb  stm32f10x_rcc.o [1]
RCC_AHBPeriphResetCmd   0x080053eb    0x1e  Code  Gb  stm32f10x_rcc.o [1]
RCC_APB1PeriphClockCmd  0x080053cd    0x1e  Code  Gb  stm32f10x_rcc.o [1]
RCC_APB2PeriphClockCmd  0x080053af    0x1e  Code  Gb  stm32f10x_rcc.o [1]
RCC_GetClocksFreq       0x080051f1   0x1a0  Code  Gb  stm32f10x_rcc.o [1]
RCC_IRQHandler          0x08006d45          Code  Wk  startup_stm32f10x_cl.o [1]
RTCAlarm_IRQHandler     0x08006dd5          Code  Wk  startup_stm32f10x_cl.o [1]
RTC_IRQHandler          0x08006d3d          Code  Wk  startup_stm32f10x_cl.o [1]
Region$$Table$$Base     0x08006c70           --   Gb  - Linker created -
Region$$Table$$Limit    0x08006c94           --   Gb  - Linker created -
Reset_Handler           0x08006cf1          Code  Wk  startup_stm32f10x_cl.o [1]
Rx_Buff                 0x200000dc  0x23a0  Data  Gb  ethernetif.o [1]
SPI1_IRQHandler         0x08006dbd          Code  Wk  startup_stm32f10x_cl.o [1]
SPI2_IRQHandler         0x08006dc1          Code  Wk  startup_stm32f10x_cl.o [1]
SPI3_IRQHandler         0x08006de1          Code  Wk  startup_stm32f10x_cl.o [1]
SVC_Handler             0x08006c9f     0x2  Code  Gb  stm32f10x_it.o [1]
SetSysClock             0x080069cf     0x8  Code  Lc  system_stm32f10x.o [1]
SetSysClockTo72         0x08006189   0x10c  Code  Lc  stm32f107.o [1]
SetSysClockTo72         0x080069d7   0x10c  Code  Lc  system_stm32f10x.o [1]
Set_MAC_Address         0x0800675d    0x22  Code  Gb  ethernetif.o [1]
SysTick_Config          0x08005f7b    0x32  Code  Lc  stm32f107.o [1]
SysTick_Handler         0x08006ca5     0x8  Code  Gb  stm32f10x_it.o [1]
SystemInit              0x08006971    0x5e  Code  Gb  system_stm32f10x.o [1]
System_Periodic_Handle  0x08006c2d     0xc  Code  Gb  main.o [1]
System_Setup            0x08005fad    0x8a  Code  Gb  stm32f107.o [1]
TAMPER_IRQHandler       0x08006d39          Code  Wk  startup_stm32f10x_cl.o [1]
TCPTimer                0x20007c1c     0x4  Data  Gb  netconf.o [1]
TIM1_BRK_IRQHandler     0x08006d91          Code  Wk  startup_stm32f10x_cl.o [1]
TIM1_CC_IRQHandler      0x08006d9d          Code  Wk  startup_stm32f10x_cl.o [1]
TIM1_TRG_COM_IRQHandler
                        0x08006d99          Code  Wk  startup_stm32f10x_cl.o [1]
TIM1_UP_IRQHandler      0x08006d95          Code  Wk  startup_stm32f10x_cl.o [1]
TIM2_IRQHandler         0x08006da1          Code  Wk  startup_stm32f10x_cl.o [1]
TIM3_IRQHandler         0x08006da5          Code  Wk  startup_stm32f10x_cl.o [1]
TIM4_IRQHandler         0x08006da9          Code  Wk  startup_stm32f10x_cl.o [1]
TIM5_IRQHandler         0x08006ddd          Code  Wk  startup_stm32f10x_cl.o [1]
TIM6_IRQHandler         0x08006ded          Code  Wk  startup_stm32f10x_cl.o [1]
TIM7_IRQHandler         0x08006df1          Code  Wk  startup_stm32f10x_cl.o [1]
Time_Update             0x08006c21     0xc  Code  Gb  main.o [1]
TotalData               0x20007c10     0x4  Data  Lc  httpserver.o [1]
TotalReceived           0x20007c00     0x4  Data  Lc  httpserver.o [1]
Tx_Buff                 0x2000247c  0x17c0  Data  Gb  ethernetif.o [1]
UART4_IRQHandler        0x08006de5          Code  Wk  startup_stm32f10x_cl.o [1]
UART5_IRQHandler        0x08006de9          Code  Wk  startup_stm32f10x_cl.o [1]
UDPpcb                  0x20007c4c     0x4  Data  Lc  tftpserver.o [1]
USART1_IRQHandler       0x08006dc5          Code  Wk  startup_stm32f10x_cl.o [1]
USART2_IRQHandler       0x08006dc9          Code  Wk  startup_stm32f10x_cl.o [1]
USART3_IRQHandler       0x08006dcd          Code  Wk  startup_stm32f10x_cl.o [1]
UsageFault_Handler      0x08006c9d     0x2  Code  Gb  stm32f10x_it.o [1]
WWDG_Enable             0x08005435     0xc  Code  Gb  stm32f10x_wwdg.o [1]
WWDG_IRQHandler         0x08006d31          Code  Wk  startup_stm32f10x_cl.o [1]
_PrintfTiny             0x08005557   0x11a  Code  Gb  xprintftiny.o [3]
_SProut                 0x08002c23     0xa  Code  Gb  xsprout.o [3]
__aeabi_memclr4         0x08002c1d          Code  Gb  ABImemclr4.o [5]
__aeabi_memcpy          0x08002bad          Code  Gb  ABImemcpy.o [5]
__aeabi_memcpy4         0x08002bc7          Code  Gb  ABImemcpy.o [5]
__aeabi_memcpy8         0x08002bc7          Code  Gb  ABImemcpy.o [5]
__aeabi_memset4         0x08002ec1          Code  Gb  ABImemset48.o [5]
__aeabi_memset8         0x08002ec1          Code  Gb  ABImemset48.o [5]
__cmain                 0x08006cad          Code  Gb  cmain.o [5]
__exit                  0x08006cdd    0x14  Code  Gb  exit.o [6]
__iar_Memset4_word      0x08002ec9          Code  Gb  ABImemset48.o [5]
__iar_Memset8_word      0x08002ec9          Code  Gb  ABImemset48.o [5]
__iar_copy_init3        0x080018cf    0x2e  Code  Gb  copy_init3.o [5]
__iar_data_init3        0x08006c45    0x2c  Code  Gb  data_init3.o [5]
__iar_program_start     0x08006d01          Code  Gb  cstartup_M.o [5]
__iar_strcmp            0x08005515          Code  Gb  strcmp.o [5]
__iar_zero_init3        0x080029b3    0x22  Code  Gb  zero_init3.o [5]
__low_level_init        0x08006cc3     0x4  Code  Gb  low_level_init.o [3]
__vector_table          0x08000000          Data  Gb  startup_stm32f10x_cl.o [1]
_call_main              0x08006cb9          Code  Gb  cmain.o [5]
_exit                   0x08006cd1          Code  Gb  cexit.o [5]
_main                   0x08006cbf          Code  Gb  cmain.o [5]
ackno                   0x20007c3c     0x4  Data  Lc  tcp_in.o [1]
arp_table               0x20007acc    0xc8  Data  Lc  etharp.o [1]
buf                     0x200074ec   0x5e0  Data  Lc  ip_frag.o [1]
close_conn              0x08004061    0x2c  Code  Lc  httpserver.o [1]
conn_err                0x08004051    0x10  Code  Lc  httpserver.o [1]
current_header          0x20007be8     0x4  Data  Lc  ip.o [1]
current_netif           0x20007be4     0x4  Data  Lc  ip.o [1]
data_index_html         0x080048a0   0x298  Data  Lc  httpserver.o [1]
data_reset_html         0x08004b38   0x19c  Data  Lc  httpserver.o [1]
data_upload_html        0x08004cd4   0x27c  Data  Lc  httpserver.o [1]
data_uploaddone_html    0x08004f50   0x23c  Data  Lc  httpserver.o [1]
etharp_arp_input        0x08003be5    0xe0  Code  Gb  etharp.o [1]
etharp_cached_entry     0x20007c5c     0x1  Data  Lc  etharp.o [1]
etharp_ip_input         0x08003bc1    0x24  Code  Gb  etharp.o [1]
etharp_output           0x08003ccd    0xa4  Code  Gb  etharp.o [1]
etharp_query            0x08003d83    0xf2  Code  Gb  etharp.o [1]
etharp_raw              0x08003e81    0xa8  Code  Lc  etharp.o [1]
etharp_request          0x08003f29    0x28  Code  Gb  etharp.o [1]
etharp_send_ip          0x08003aff    0x2c  Code  Lc  etharp.o [1]
etharp_tmr              0x08003987    0x44  Code  Gb  etharp.o [1]
ethbroadcast            0x08003fa4     0x8  Data  Gb  etharp.o [1]
ethernet_input          0x08003f51    0x52  Code  Gb  etharp.o [1]
ethernetif_init         0x0800681f    0xae  Code  Gb  ethernetif.o [1]
ethernetif_input        0x080067f9    0x26  Code  Gb  ethernetif.o [1]
ethzero                 0x08003fac     0x8  Data  Gb  etharp.o [1]
exit                    0x08006cc7     0x8  Code  Gb  exit.o [3]
file_index_html         0x0800518c    0x10  Data  Gb  httpserver.o [1]
file_reset_html         0x0800519c    0x10  Data  Gb  httpserver.o [1]
file_upload_html        0x080051ac    0x10  Data  Gb  httpserver.o [1]
file_uploaddone_html    0x080051cc    0x10  Data  Gb  httpserver.o [1]
find_entry              0x080039cb   0x134  Code  Lc  etharp.o [1]
flags                   0x20007c61     0x1  Data  Lc  tcp_in.o [1]
free_etharp_q           0x08003969    0x1e  Code  Lc  etharp.o [1]
fs_open                 0x080045e9    0x30  Code  Lc  httpserver.o [1]
htmlpage                0x20007c5f     0x1  Data  Gb  httpserver.o [1]
htonl                   0x08001579    0x18  Code  Gb  inet.o [1]
htons                   0x0800156d     0xa  Code  Gb  inet.o [1]
http_accept             0x08004577    0x48  Code  Lc  httpserver.o [1]
http_poll               0x080040d1    0x1e  Code  Lc  httpserver.o [1]
http_recv               0x08004131   0x446  Code  Lc  httpserver.o [1]
http_sent               0x080040ef    0x42  Code  Lc  httpserver.o [1]
icmp_dest_unreach       0x080038f1     0x6  Code  Gb  icmp.o [1]
icmp_input              0x080037db   0x10e  Code  Gb  icmp.o [1]
icmp_send_response      0x080038fb    0x60  Code  Lc  icmp.o [1]
icmp_time_exceeded      0x080038f7     0x4  Code  Gb  icmp.o [1]
inet_chksum             0x08003ffb     0xc  Code  Gb  inet_chksum.o [1]
inet_chksum_pbuf        0x08004007    0x48  Code  Gb  inet_chksum.o [1]
inseg                   0x20007bc4    0x14  Data  Lc  tcp_in.o [1]
ip_addr_any             0x08001938     0x4  Data  Gb  ip_addr.o [1]
ip_addr_isbroadcast     0x080018fd    0x3a  Code  Gb  ip_addr.o [1]
ip_frag                 0x08003363   0x124  Code  Gb  ip_frag.o [1]
ip_input                0x08002c6f   0x150  Code  Gb  ip.o [1]
ip_output               0x08002e8d    0x34  Code  Gb  ip.o [1]
ip_output_if            0x08002dbf    0xbe  Code  Gb  ip.o [1]
ip_reass                0x080031cf   0x188  Code  Gb  ip_frag.o [1]
ip_reass_chain_frag_into_datagram_and_validate
                        0x080030f5    0xda  Code  Lc  ip_frag.o [1]
ip_reass_dequeue_datagram
                        0x080030d9    0x1c  Code  Lc  ip_frag.o [1]
ip_reass_free_complete_datagram
                        0x08003005    0x6c  Code  Lc  ip_frag.o [1]
ip_reass_pbufcount      0x20007bec     0x2  Data  Lc  ip_frag.o [1]
ip_reass_remove_oldest_datagram
                        0x08003071    0x68  Code  Lc  ip_frag.o [1]
ip_route                0x08002c2d    0x42  Code  Gb  ip.o [1]
iphdr                   0x20007c34     0x4  Data  Lc  tcp_in.o [1]
lfree                   0x200064d4     0x4  Data  Lc  mem.o [1]
low_level_input         0x080067ab    0x4e  Code  Lc  ethernetif.o [1]
low_level_output        0x0800677f    0x2c  Code  Lc  ethernetif.o [1]
lwip_standard_chksum    0x08003fb5    0x46  Code  Lc  inet_chksum.o [1]
main                    0x08006bcd    0x3c  Code  Gb  main.o [1]
mem_free                0x08002a03    0x68  Code  Gb  mem.o [1]
mem_init                0x080029d5    0x2e  Code  Gb  mem.o [1]
mem_malloc              0x08002b0d    0x9a  Code  Gb  mem.o [1]
mem_realloc             0x08002a6b    0xa2  Code  Gb  mem.o [1]
memcpy                  0x08006709    0x16  Code  Gb  tftpserver.o [1]
memp_free               0x0800217d    0x10  Code  Gb  memp.o [1]
memp_init               0x0800211d    0x44  Code  Gb  memp.o [1]
memp_malloc             0x08002161    0x1c  Code  Gb  memp.o [1]
memp_memory             0x20003c60  0x286c  Data  Lc  memp.o [1]
memp_num                0x080021a4    0x14  Data  Lc  memp.o [1]
memp_sizes              0x08002190    0x14  Data  Lc  memp.o [1]
memp_tab                0x20003c3c    0x24  Data  Lc  memp.o [1]
netif                   0x20007b94    0x30  Data  Gb  netconf.o [1]
netif_add               0x08002ef9    0x42  Code  Gb  netif.o [1]
netif_default           0x20007be0     0x4  Data  Gb  netif.o [1]
netif_is_up             0x08002ff9     0xa  Code  Gb  netif.o [1]
netif_list              0x20007bdc     0x4  Data  Gb  netif.o [1]
netif_set_addr          0x08002f3b    0x1e  Code  Gb  netif.o [1]
netif_set_default       0x08002fc5     0x6  Code  Gb  netif.o [1]
netif_set_gw            0x08002fb5     0x8  Code  Gb  netif.o [1]
netif_set_ipaddr        0x08002f59    0x5c  Code  Gb  netif.o [1]
netif_set_netmask       0x08002fbd     0x8  Code  Gb  netif.o [1]
netif_set_up            0x08002fd9    0x20  Code  Gb  netif.o [1]
ntohl                   0x08001591     0x2  Code  Gb  inet.o [1]
ntohs                   0x08001577     0x2  Code  Gb  inet.o [1]
octet_stream            0x080051bc    0x10  Data  Lc  httpserver.o [1]
pbuf_alloc              0x08001593   0x116  Code  Gb  pbuf.o [1]
pbuf_cat                0x080017b1    0x24  Code  Gb  pbuf.o [1]
pbuf_chain              0x080017d5    0x10  Code  Gb  pbuf.o [1]
pbuf_clen               0x08001797    0x10  Code  Gb  pbuf.o [1]
pbuf_copy               0x080017e5    0x8a  Code  Gb  pbuf.o [1]
pbuf_copy_partial       0x0800186f    0x60  Code  Gb  pbuf.o [1]
pbuf_free               0x08001757    0x40  Code  Gb  pbuf.o [1]
pbuf_header             0x080016f7    0x60  Code  Gb  pbuf.o [1]
pbuf_realloc            0x080016a9    0x4e  Code  Gb  pbuf.o [1]
pbuf_ref                0x080017a7     0xa  Code  Gb  pbuf.o [1]
ram                     0x200064cc     0x4  Data  Lc  mem.o [1]
ram_end                 0x200064d0     0x4  Data  Lc  mem.o [1]
ram_heap                0x200064d8  0x1014  Data  Lc  mem.o [1]
raw_input               0x08003491    0x5c  Code  Gb  raw.o [1]
raw_pcbs                0x20007c24     0x4  Data  Lc  raw.o [1]
reassdatagrams          0x20007bf0     0x4  Data  Lc  ip_frag.o [1]
recv_data               0x20007c40     0x4  Data  Lc  tcp_in.o [1]
recv_flags              0x20007c62     0x1  Data  Lc  tcp_in.o [1]
resetpage               0x20007c5e     0x1  Data  Lc  httpserver.o [1]
send_data               0x0800408d    0x44  Code  Lc  httpserver.o [1]
seqno                   0x20007c38     0x4  Data  Lc  tcp_in.o [1]
size                    0x20007bf8     0x4  Data  Lc  httpserver.o [1]
sprintf                 0x08005471    0x34  Code  Gb  sprintf.o [3]
strcmp                  0x08005515          Code  Gb  strcmp.o [5]
strlen                  0x080057f5          Code  Gb  strlen.o [5]
strncmp                 0x08005445    0x2a  Code  Gb  strncmp.o [3]
tcp_abandon             0x080019e3    0x8a  Code  Gb  tcp.o [1]
tcp_accept              0x0800201f     0x4  Code  Gb  tcp.o [1]
tcp_accept_null         0x08001b41     0x6  Code  Lc  tcp.o [1]
tcp_active_pcbs         0x20000010     0x4  Data  Gb  tcp.o [1]
tcp_alloc               0x08001f1b    0xea  Code  Gb  tcp.o [1]
tcp_arg                 0x08002009     0x4  Code  Gb  tcp.o [1]
tcp_backoff             0x08002104    0x10  Data  Gb  tcp.o [1]
tcp_bind                0x08001a6d    0xd4  Code  Gb  tcp.o [1]
tcp_bound_pcbs          0x20000008     0x4  Data  Gb  tcp.o [1]
tcp_close               0x08001959    0x8a  Code  Gb  tcp.o [1]
tcp_eff_send_mss        0x080020e5    0x1e  Code  Gb  tcp.o [1]
tcp_enqueue             0x08002269   0x2fe  Code  Gb  tcp_out.o [1]
tcp_err                 0x08002019     0x6  Code  Gb  tcp.o [1]
tcp_fasttmr             0x08001e81    0x48  Code  Gb  tcp.o [1]
tcp_input               0x08000151   0x502  Code  Gb  tcp_in.o [1]
tcp_input_pcb           0x20007c44     0x4  Data  Gb  tcp_in.o [1]
tcp_keepalive           0x08002939    0x28  Code  Gb  tcp_out.o [1]
tcp_listen_input        0x08000653   0x146  Code  Lc  tcp_in.o [1]
tcp_listen_pcbs         0x2000000c     0x4  Data  Gb  tcp.o [1]
tcp_listen_with_backlog
                        0x08001b47    0x7a  Code  Gb  tcp.o [1]
tcp_new                 0x08002005     0x4  Code  Gb  tcp.o [1]
tcp_new_port            0x08001c2f    0x4c  Code  Lc  tcp.o [1]
tcp_next_iss            0x080020bd     0xc  Code  Gb  tcp.o [1]
tcp_output              0x08002579   0x1da  Code  Gb  tcp_out.o [1]
tcp_output_segment      0x0800275b    0xaa  Code  Lc  tcp_out.o [1]
tcp_output_set_header   0x080021b9    0x68  Code  Lc  tcp_out.o [1]
tcp_parseopt            0x08001473    0xd0  Code  Lc  tcp_in.o [1]
tcp_pcb_purge           0x0800202d    0x30  Code  Gb  tcp.o [1]
tcp_pcb_remove          0x0800205d    0x3e  Code  Gb  tcp.o [1]
tcp_persist_backoff     0x08002114     0x8  Data  Gb  tcp.o [1]
tcp_poll                0x08002023     0xa  Code  Gb  tcp.o [1]
tcp_process             0x080007e7   0x572  Code  Lc  tcp_in.o [1]
tcp_receive             0x08000d8d   0x6e6  Code  Lc  tcp_in.o [1]
tcp_recv                0x0800200d     0x6  Code  Gb  tcp.o [1]
tcp_recv_null           0x08001f01    0x1a  Code  Lc  tcp.o [1]
tcp_recved              0x08001bf1    0x3e  Code  Gb  tcp.o [1]
tcp_rexmit              0x080028ed    0x4c  Code  Gb  tcp_out.o [1]
tcp_rexmit_rto          0x080028bb    0x32  Code  Gb  tcp_out.o [1]
tcp_rst                 0x08002819    0x98  Code  Gb  tcp_out.o [1]
tcp_seg_free            0x08001ee3    0x1e  Code  Gb  tcp.o [1]
tcp_segs_free           0x08001ec9    0x1a  Code  Gb  tcp.o [1]
tcp_send_ctrl           0x08002221    0x18  Code  Gb  tcp_out.o [1]
tcp_sent                0x08002013     0x6  Code  Gb  tcp.o [1]
tcp_slowtmr             0x08001c7b   0x206  Code  Gb  tcp.o [1]
tcp_ticks               0x20000004     0x4  Data  Gb  tcp.o [1]
tcp_timer               0x20007c60     0x1  Data  Lc  tcp.o [1]
tcp_timewait_input      0x08000799    0x4e  Code  Lc  tcp_in.o [1]
tcp_tmp_pcb             0x20000018     0x4  Data  Gb  tcp.o [1]
tcp_tmr                 0x0800193d    0x1a  Code  Gb  tcp.o [1]
tcp_tw_pcbs             0x20000014     0x4  Data  Gb  tcp.o [1]
tcp_update_rcv_ann_wnd  0x08001bc9    0x28  Code  Gb  tcp.o [1]
tcp_write               0x08002239    0x30  Code  Gb  tcp_out.o [1]
tcp_zero_window_probe   0x08002961    0x36  Code  Gb  tcp_out.o [1]
tcphdr                  0x20007c30     0x4  Data  Lc  tcp_in.o [1]
tcplen                  0x20007c5a     0x2  Data  Lc  tcp_in.o [1]
timingdelay             0x20007c18     0x4  Data  Gb  main.o [1]
total_count             0x20007c50     0x4  Data  Lc  tftpserver.o [1]
udp_bind                0x0800371d    0x56  Code  Gb  udp.o [1]
udp_disconnect          0x08003773    0x14  Code  Gb  udp.o [1]
udp_input               0x080034f1   0x14a  Code  Gb  udp.o [1]
udp_new                 0x080037c1    0x1a  Code  Gb  udp.o [1]
udp_pcbs                0x20007c54     0x4  Data  Gb  udp.o [1]
udp_recv                0x08003787     0x6  Code  Gb  udp.o [1]
udp_remove              0x0800378d    0x28  Code  Gb  udp.o [1]
udp_sendto              0x0800363b    0x2a  Code  Gb  udp.o [1]
udp_sendto_if           0x08003665    0xb8  Code  Gb  udp.o [1]
update_arp_entry        0x08003b2b    0x84  Code  Lc  etharp.o [1]


[1] = E:\yun\百度云\github\netIAP\测控IAP\Project\STM32F107_LwIP_IAP\EWARMv5\STM3210C-EVAL\Obj
[2] = command line
[3] = dl7M_tlf.a
[4] = m7M_tl.a
[5] = rt7M_tl.a
[6] = shb_l.a

  28 160 bytes of readonly  code memory
      88 bytes of readonly  data memory
  35 939 bytes of readwrite data memory

Errors: none
Warnings: none
